target datalayout = "e-m:e-p270:32:32-p271:32:32-p272:64:64-i64:64-i128:128-f80:128-n8:16:32:64-S128"
target triple = "x86_64-pc-linux-gnu"

%struct.prov_cipher_ctx_st = type { [16 x i8], [16 x i8], [16 x i8], ptr, %union.anon, i32, i64, i64, i64, i64, i32, i8, i32, ptr, i32, i64, i32, i64, i32, ptr, ptr, ptr }
%union.anon = type { ptr }

@.str.1 = private unnamed_addr constant [60 x i8] c"../openssl/providers/implementations/ciphers/ciphercommon.c\00", align 1

; Function Attrs: nounwind uwtable
define void @ossl_cipher_generic_reset_ctx(ptr noundef %0) #0 {
  %2 = alloca ptr, align 8
  store ptr %0, ptr %2, align 8, !tbaa !13
  %3 = load ptr, ptr %2, align 8, !tbaa !13
  %4 = icmp ne ptr %3, null
  br i1 %4, label %5, label %18

5:                                                ; preds = %1
  %6 = load ptr, ptr %2, align 8, !tbaa !13
  %7 = getelementptr inbounds nuw %struct.prov_cipher_ctx_st, ptr %6, i32 0, i32 14
  %8 = load i32, ptr %7, align 8, !tbaa !23
  %9 = icmp ne i32 %8, 0
  br i1 %9, label %10, label %18

10:                                               ; preds = %5
  %11 = load ptr, ptr %2, align 8, !tbaa !13
  %12 = getelementptr inbounds nuw %struct.prov_cipher_ctx_st, ptr %11, i32 0, i32 13
  %13 = load ptr, ptr %12, align 8, !tbaa !24
  call void @CRYPTO_free(ptr noundef %13, ptr noundef @.str.1, i32 noundef 185)
  %14 = load ptr, ptr %2, align 8, !tbaa !13
  %15 = getelementptr inbounds nuw %struct.prov_cipher_ctx_st, ptr %14, i32 0, i32 14
  store i32 0, ptr %15, align 8, !tbaa !23
  %16 = load ptr, ptr %2, align 8, !tbaa !13
  %17 = getelementptr inbounds nuw %struct.prov_cipher_ctx_st, ptr %16, i32 0, i32 13
  store ptr null, ptr %17, align 8, !tbaa !24
  br label %18

18:                                               ; preds = %10, %5, %1
  ret void
}