; Function Attrs: nounwind uwtable
define void @ossl_cipher_generic_reset_ctx(ptr noundef captures(address_is_null) %0) local_unnamed_addr #1 {
  %.not = icmp eq ptr %0, null
  br i1 %.not, label %8, label %2

2:                                                ; preds = %1
  %3 = getelementptr inbounds nuw i8, ptr %0, i64 128
  %4 = load i32, ptr %3, align 8, !tbaa !18
  %.not5 = icmp eq i32 %4, 0
  br i1 %.not5, label %8, label %5

5:                                                ; preds = %2
  %6 = getelementptr inbounds nuw i8, ptr %0, i64 120
  %7 = load ptr, ptr %6, align 8, !tbaa !19
  tail call void @CRYPTO_free(ptr noundef %7, ptr noundef nonnull @.str.1, i32 noundef 185) #6
  store i32 0, ptr %3, align 8, !tbaa !18
  store ptr null, ptr %6, align 8, !tbaa !19
  br label %8

8:                                                ; preds = %5, %2, %1
  ret void
}